target datalayout = "e-m:e-p270:32:32-p271:32:32-p272:64:64-i64:64-i128:128-f80:128-n8:16:32:64-S128"
target triple = "x86_64-pc-linux-gnu"

%struct.yyjson_alc = type { ptr, ptr, ptr, ptr }
%struct.yyjson_str_pool = type { ptr, ptr, i64, i64, ptr }
%struct.yyjson_val_pool = type { ptr, ptr, i64, i64, ptr }
%struct.yyjson_val_chunk = type { ptr, i64 }
%struct.yyjson_mut_doc = type { ptr, %struct.yyjson_alc, %struct.yyjson_str_pool, %struct.yyjson_val_pool }

; Function Attrs: alwaysinline nounwind uwtable
define internal i64 @yyjson_mut_doc_estimated_val_num(ptr noundef %0) #4 {
  %2 = alloca ptr, align 8
  %3 = alloca i64, align 8
  %4 = alloca ptr, align 8
  store ptr %0, ptr %2, align 8, !tbaa !71
  call void @llvm.lifetime.start.p0(i64 8, ptr %3) #13
  store i64 0, ptr %3, align 8, !tbaa !10
  call void @llvm.lifetime.start.p0(i64 8, ptr %4) #13
  %5 = load ptr, ptr %2, align 8, !tbaa !71
  %6 = getelementptr inbounds nuw %struct.yyjson_mut_doc, ptr %5, i32 0, i32 3
  %7 = getelementptr inbounds nuw %struct.yyjson_val_pool, ptr %6, i32 0, i32 4
  %8 = load ptr, ptr %7, align 8, !tbaa !245
  store ptr %8, ptr %4, align 8, !tbaa !63
  br label %9

9:                                                ; preds = %41, %1
  %10 = load ptr, ptr %4, align 8, !tbaa !63
  %11 = icmp ne ptr %10, null
  br i1 %11, label %12, label %45

12:                                               ; preds = %9
  %13 = load ptr, ptr %4, align 8, !tbaa !63
  %14 = getelementptr inbounds nuw %struct.yyjson_val_chunk, ptr %13, i32 0, i32 1
  %15 = load i64, ptr %14, align 8, !tbaa !67
  %16 = udiv i64 %15, 24
  %17 = sub i64 %16, 1
  %18 = load i64, ptr %3, align 8, !tbaa !10
  %19 = add i64 %18, %17
  store i64 %19, ptr %3, align 8, !tbaa !10
  %20 = load ptr, ptr %4, align 8, !tbaa !63
  %21 = load ptr, ptr %2, align 8, !tbaa !71
  %22 = getelementptr inbounds nuw %struct.yyjson_mut_doc, ptr %21, i32 0, i32 3
  %23 = getelementptr inbounds nuw %struct.yyjson_val_pool, ptr %22, i32 0, i32 4
  %24 = load ptr, ptr %23, align 8, !tbaa !245
  %25 = icmp eq ptr %20, %24
  br i1 %25, label %26, label %41

26:                                               ; preds = %12
  %27 = load ptr, ptr %2, align 8, !tbaa !71
  %28 = getelementptr inbounds nuw %struct.yyjson_mut_doc, ptr %27, i32 0, i32 3
  %29 = getelementptr inbounds nuw %struct.yyjson_val_pool, ptr %28, i32 0, i32 1
  %30 = load ptr, ptr %29, align 8, !tbaa !246
  %31 = load ptr, ptr %2, align 8, !tbaa !71
  %32 = getelementptr inbounds nuw %struct.yyjson_mut_doc, ptr %31, i32 0, i32 3
  %33 = getelementptr inbounds nuw %struct.yyjson_val_pool, ptr %32, i32 0, i32 0
  %34 = load ptr, ptr %33, align 8, !tbaa !247
  %35 = ptrtoint ptr %30 to i64
  %36 = ptrtoint ptr %34 to i64
  %37 = sub i64 %35, %36
  %38 = sdiv exact i64 %37, 24
  %39 = load i64, ptr %3, align 8, !tbaa !10
  %40 = sub i64 %39, %38
  store i64 %40, ptr %3, align 8, !tbaa !10
  br label %41

41:                                               ; preds = %26, %12
  %42 = load ptr, ptr %4, align 8, !tbaa !63
  %43 = getelementptr inbounds nuw %struct.yyjson_val_chunk, ptr %42, i32 0, i32 0
  %44 = load ptr, ptr %43, align 8, !tbaa !65
  store ptr %44, ptr %4, align 8, !tbaa !63
  br label %9, !llvm.loop !248

45:                                               ; preds = %9
  %46 = load i64, ptr %3, align 8, !tbaa !10
  call void @llvm.lifetime.end.p0(i64 8, ptr %4) #13
  call void @llvm.lifetime.end.p0(i64 8, ptr %3) #13
  ret i64 %46
}

; Function Attrs: nounwind uwtable
define dso_local ptr @yyjson_mut_write_opts(ptr noundef %0, i32 noundef %1, ptr noundef %2, ptr noundef %3, ptr noundef %4) #0 {
  %6 = alloca ptr, align 8
  %7 = alloca i32, align 4
  %8 = alloca ptr, align 8
  %9 = alloca ptr, align 8
  %10 = alloca ptr, align 8
  %11 = alloca ptr, align 8
  %12 = alloca i64, align 8
  store ptr %0, ptr %6, align 8, !tbaa !71
  store i32 %1, ptr %7, align 4, !tbaa !174
  store ptr %2, ptr %8, align 8, !tbaa !4
  store ptr %3, ptr %9, align 8, !tbaa !107
  store ptr %4, ptr %10, align 8, !tbaa !238
  call void @llvm.lifetime.start.p0(i64 8, ptr %11) #13
  call void @llvm.lifetime.start.p0(i64 8, ptr %12) #13
  %13 = load ptr, ptr %6, align 8, !tbaa !71
  %14 = icmp ne ptr %13, null
  %15 = xor i1 %14, true
  %16 = xor i1 %15, true
  %17 = zext i1 %16 to i32
  %18 = sext i32 %17 to i64
  %19 = call i64 @llvm.expect.i64(i64 %18, i64 1)
  %20 = icmp ne i64 %19, 0
  br i1 %20, label %21, label %27

21:                                               ; preds = %5
  %22 = load ptr, ptr %6, align 8, !tbaa !71
  %23 = getelementptr inbounds nuw %struct.yyjson_mut_doc, ptr %22, i32 0, i32 0
  %24 = load ptr, ptr %23, align 8, !tbaa !97
  store ptr %24, ptr %11, align 8, !tbaa !85
  %25 = load ptr, ptr %6, align 8, !tbaa !71
  %26 = call i64 @yyjson_mut_doc_estimated_val_num(ptr noundef %25)
  store i64 %26, ptr %12, align 8, !tbaa !10
  br label %28

27:                                               ; preds = %5
  store ptr null, ptr %11, align 8, !tbaa !85
  store i64 0, ptr %12, align 8, !tbaa !10
  br label %28

28:                                               ; preds = %27, %21
  %29 = load ptr, ptr %11, align 8, !tbaa !85
  %30 = load i64, ptr %12, align 8, !tbaa !10
  %31 = load i32, ptr %7, align 4, !tbaa !174
  %32 = load ptr, ptr %8, align 8, !tbaa !4
  %33 = load ptr, ptr %9, align 8, !tbaa !107
  %34 = load ptr, ptr %10, align 8, !tbaa !238
  %35 = call ptr @yyjson_mut_write_opts_impl(ptr noundef %29, i64 noundef %30, i32 noundef %31, ptr noundef %32, ptr noundef %33, ptr noundef %34)
  call void @llvm.lifetime.end.p0(i64 8, ptr %12) #13
  call void @llvm.lifetime.end.p0(i64 8, ptr %11) #13
  ret ptr %35
}