; Function Attrs: nounwind uwtable
define dso_local ptr @yyjson_mut_write_opts(ptr noundef readonly captures(address_is_null) %0, i32 noundef %1, ptr noundef captures(address_is_null) %2, ptr noundef captures(address_is_null) %3, ptr noundef captures(address_is_null) %4) local_unnamed_addr #8 {
  %.not = icmp eq ptr %0, null
  br i1 %.not, label %yyjson_mut_doc_estimated_val_num.exit, label %6, !prof !4

6:                                                ; preds = %5
  %7 = load ptr, ptr %0, align 8, !tbaa !72
  %8 = getelementptr inbounds nuw i8, ptr %0, i64 80
  %9 = getelementptr inbounds nuw i8, ptr %0, i64 112
  %.0.i10 = load ptr, ptr %9, align 8, !tbaa !219
  %.not.i11 = icmp eq ptr %.0.i10, null
  br i1 %.not.i11, label %yyjson_mut_doc_estimated_val_num.exit, label %.lr.ph

.lr.ph:                                           ; preds = %6
  %10 = getelementptr inbounds nuw i8, ptr %0, i64 88
  br label %11

11:                                               ; preds = %.lr.ph, %25
  %.0.i13 = phi ptr [ %.0.i10, %.lr.ph ], [ %.0.i, %25 ]
  %.010.i12 = phi i64 [ 0, %.lr.ph ], [ %.1.i, %25 ]
  %12 = getelementptr inbounds nuw i8, ptr %.0.i13, i64 8
  %13 = load i64, ptr %12, align 8, !tbaa !58
  %14 = udiv i64 %13, 24
  %15 = add i64 %.010.i12, -1
  %16 = add i64 %15, %14
  %17 = icmp eq ptr %.0.i13, %.0.i10
  br i1 %17, label %18, label %25

18:                                               ; preds = %11
  %19 = load ptr, ptr %10, align 8, !tbaa !220
  %20 = load ptr, ptr %8, align 8, !tbaa !221
  %21 = ptrtoint ptr %19 to i64
  %22 = ptrtoint ptr %20 to i64
  %23 = sub i64 %21, %22
  %.neg.i = sdiv exact i64 %23, -24
  %24 = add i64 %.neg.i, %16
  br label %25

25:                                               ; preds = %18, %11
  %.1.i = phi i64 [ %24, %18 ], [ %16, %11 ]
  %.0.i = load ptr, ptr %.0.i13, align 8, !tbaa !219
  %.not.i = icmp eq ptr %.0.i, null
  br i1 %.not.i, label %yyjson_mut_doc_estimated_val_num.exit, label %11, !llvm.loop !222

yyjson_mut_doc_estimated_val_num.exit:            ; preds = %25, %6, %5
  %.08 = phi ptr [ null, %5 ], [ %7, %6 ], [ %7, %25 ]
  %.0 = phi i64 [ 0, %5 ], [ 0, %6 ], [ %.1.i, %25 ]
  %26 = tail call fastcc ptr @yyjson_mut_write_opts_impl(ptr noundef %.08, i64 noundef %.0, i32 noundef %1, ptr noundef %2, ptr noundef %3, ptr noundef %4)
  ret ptr %26
}